; Function Attrs: mustprogress uwtable
define ptr @_ZN32pxrInternal_v0_24__pxrReserved__17UsdSchemaRegistry15GetTypeFromNameERKNS_7TfTokenE(ptr nocapture noundef nonnull readonly align 8 dereferenceable(8) %0) local_unnamed_addr #0 align 2 personality ptr @__gxx_personality_v0 {
  %2 = load atomic i8, ptr @_ZGVZN32pxrInternal_v0_24__pxrReserved__17UsdSchemaRegistry15GetTypeFromNameERKNS_7TfTokenEE14schemaBaseType acquire, align 8
  %3 = icmp eq i8 %2, 0
  br i1 %3, label %4, label %9, !prof !19

4:                                                ; preds = %1
  %5 = tail call i32 @__cxa_guard_acquire(ptr nonnull @_ZGVZN32pxrInternal_v0_24__pxrReserved__17UsdSchemaRegistry15GetTypeFromNameERKNS_7TfTokenEE14schemaBaseType) #21
  %.not = icmp eq i32 %5, 0
  br i1 %.not, label %9, label %6

6:                                                ; preds = %4
  %7 = invoke noundef nonnull align 8 dereferenceable(8) ptr @_ZN32pxrInternal_v0_24__pxrReserved__6TfType13_FindByTypeidERKSt9type_info(ptr noundef nonnull align 8 dereferenceable(16) @_ZTIN32pxrInternal_v0_24__pxrReserved__13UsdSchemaBaseE)
          to label %_ZN32pxrInternal_v0_24__pxrReserved__6TfType4FindINS_13UsdSchemaBaseEEERKS0_v.exit unwind label %21

_ZN32pxrInternal_v0_24__pxrReserved__6TfType4FindINS_13UsdSchemaBaseEEERKS0_v.exit: ; preds = %6
  %8 = load i64, ptr %7, align 8
  store i64 %8, ptr @_ZZN32pxrInternal_v0_24__pxrReserved__17UsdSchemaRegistry15GetTypeFromNameERKNS_7TfTokenEE14schemaBaseType, align 8
  tail call void @__cxa_guard_release(ptr nonnull @_ZGVZN32pxrInternal_v0_24__pxrReserved__17UsdSchemaRegistry15GetTypeFromNameERKNS_7TfTokenEE14schemaBaseType) #21
  br label %9

9:                                                ; preds = %_ZN32pxrInternal_v0_24__pxrReserved__6TfType4FindINS_13UsdSchemaBaseEEERKS0_v.exit, %4, %1
  %10 = tail call noundef nonnull align 8 dereferenceable(104) ptr @_ZN32pxrInternal_v0_24__pxrReserved__12PlugRegistry11GetInstanceEv()
  %.sroa.0.0.copyload = load ptr, ptr @_ZZN32pxrInternal_v0_24__pxrReserved__17UsdSchemaRegistry15GetTypeFromNameERKNS_7TfTokenEE14schemaBaseType, align 8
  %11 = load ptr, ptr %0, align 8
  %12 = ptrtoint ptr %11 to i64
  %13 = and i64 %12, -8
  %.not.i = icmp eq i64 %13, 0
  br i1 %.not.i, label %17, label %14

14:                                               ; preds = %9
  %15 = inttoptr i64 %13 to ptr
  %16 = getelementptr inbounds nuw i8, ptr %15, i64 16
  br label %_ZNK32pxrInternal_v0_24__pxrReserved__7TfToken9GetStringB5cxx11Ev.exit

17:                                               ; preds = %9
  %18 = tail call noundef nonnull align 8 dereferenceable(32) ptr @_ZN32pxrInternal_v0_24__pxrReserved__7TfToken15_GetEmptyStringB5cxx11Ev()
  br label %_ZNK32pxrInternal_v0_24__pxrReserved__7TfToken9GetStringB5cxx11Ev.exit

_ZNK32pxrInternal_v0_24__pxrReserved__7TfToken9GetStringB5cxx11Ev.exit: ; preds = %14, %17
  %19 = phi ptr [ %16, %14 ], [ %18, %17 ]
  %20 = tail call ptr @_ZN32pxrInternal_v0_24__pxrReserved__12PlugRegistry21FindDerivedTypeByNameENS_6TfTypeERKNSt7__cxx1112basic_stringIcSt11char_traitsIcESaIcEEE(ptr %.sroa.0.0.copyload, ptr noundef nonnull align 8 dereferenceable(32) %19)
  ret ptr %20

21:                                               ; preds = %6
  %22 = landingpad { ptr, i32 }
          cleanup
  tail call void @__cxa_guard_abort(ptr nonnull @_ZGVZN32pxrInternal_v0_24__pxrReserved__17UsdSchemaRegistry15GetTypeFromNameERKNS_7TfTokenEE14schemaBaseType) #21
  resume { ptr, i32 } %22
}